target datalayout = "e-m:e-p270:32:32-p271:32:32-p272:64:64-i64:64-i128:128-f80:128-n8:16:32:64-S128"
target triple = "x86_64-pc-linux-gnu"

@ip_dissector_table = internal global ptr null, align 8
@.str.562 = private unnamed_addr constant [18 x i8] c"ipv6.routing.type\00", align 1
@.str.691 = private unnamed_addr constant [5 x i8] c"ipv6\00", align 1
@.str.692 = private unnamed_addr constant [9 x i8] c"ip.proto\00", align 1
@proto_ipv6_hopopts = internal global i32 0, align 4
@proto_ipv6_routing = internal global i32 0, align 4
@proto_ipv6_routing_rt0 = internal global i32 0, align 4
@proto_ipv6_routing_mipv6 = internal global i32 0, align 4
@proto_ipv6_routing_rpl = internal global i32 0, align 4
@proto_ipv6_routing_srh = internal global i32 0, align 4
@proto_ipv6_routing_crh = internal global i32 0, align 4
@proto_ipv6_fraghdr = internal global i32 0, align 4
@proto_ipv6_dstopts = internal global i32 0, align 4
@ipv6_handle = internal global ptr null, align 8
@.str.765 = private unnamed_addr constant [10 x i8] c"ethertype\00", align 1
@.str.766 = private unnamed_addr constant [15 x i8] c"erf.types.type\00", align 1
@.str.767 = private unnamed_addr constant [13 x i8] c"ppp.protocol\00", align 1
@.str.768 = private unnamed_addr constant [10 x i8] c"gre.proto\00", align 1
@.str.769 = private unnamed_addr constant [10 x i8] c"null.type\00", align 1
@.str.770 = private unnamed_addr constant [15 x i8] c"chdlc.protocol\00", align 1
@.str.771 = private unnamed_addr constant [9 x i8] c"fr.nlpid\00", align 1
@.str.772 = private unnamed_addr constant [11 x i8] c"osinl.excl\00", align 1
@.str.773 = private unnamed_addr constant [9 x i8] c"x.25.spi\00", align 1
@.str.774 = private unnamed_addr constant [19 x i8] c"arcnet.protocol_id\00", align 1
@.str.775 = private unnamed_addr constant [14 x i8] c"juniper.proto\00", align 1
@.str.776 = private unnamed_addr constant [19 x i8] c"pwach.channel_type\00", align 1
@.str.777 = private unnamed_addr constant [10 x i8] c"mcc.proto\00", align 1
@.str.778 = private unnamed_addr constant [26 x i8] c"sflow_245.header_protocol\00", align 1
@.str.779 = private unnamed_addr constant [11 x i8] c"wtap_encap\00", align 1
@.str.780 = private unnamed_addr constant [4 x i8] c"enc\00", align 1
@.str.781 = private unnamed_addr constant [17 x i8] c"vxlan.next_proto\00", align 1
@.str.782 = private unnamed_addr constant [15 x i8] c"nsh.next_proto\00", align 1
@.str.783 = private unnamed_addr constant [9 x i8] c"udp.port\00", align 1
@.str.784 = private unnamed_addr constant [9 x i8] c"null.bsd\00", align 1
@.str.785 = private unnamed_addr constant [3 x i8] c"IP\00", align 1
@exported_pdu_tap = internal global i32 0, align 4

; Function Attrs: null_pointer_is_valid sspstrong uwtable
define hidden void @proto_reg_handoff_ipv6() #0 {
  %1 = alloca ptr, align 8
  %2 = alloca ptr, align 8
  %3 = alloca ptr, align 8
  %4 = alloca ptr, align 8
  %5 = alloca ptr, align 8
  %6 = alloca ptr, align 8
  %7 = alloca ptr, align 8
  call void @llvm.lifetime.start.p0(i64 8, ptr %1) #15
  call void @llvm.lifetime.start.p0(i64 8, ptr %2) #15
  call void @llvm.lifetime.start.p0(i64 8, ptr %3) #15
  call void @llvm.lifetime.start.p0(i64 8, ptr %4) #15
  call void @llvm.lifetime.start.p0(i64 8, ptr %5) #15
  call void @llvm.lifetime.start.p0(i64 8, ptr %6) #15
  call void @llvm.lifetime.start.p0(i64 8, ptr %7) #15
  %8 = load ptr, ptr @ipv6_handle, align 8
  call void @dissector_add_uint(ptr noundef @.str.765, i32 noundef 34525, ptr noundef %8)
  %9 = load ptr, ptr @ipv6_handle, align 8
  call void @dissector_add_uint(ptr noundef @.str.766, i32 noundef 23, ptr noundef %9)
  %10 = load ptr, ptr @ipv6_handle, align 8
  call void @dissector_add_uint(ptr noundef @.str.767, i32 noundef 87, ptr noundef %10)
  %11 = load ptr, ptr @ipv6_handle, align 8
  call void @dissector_add_uint(ptr noundef @.str.767, i32 noundef 34525, ptr noundef %11)
  %12 = load ptr, ptr @ipv6_handle, align 8
  call void @dissector_add_uint(ptr noundef @.str.768, i32 noundef 34525, ptr noundef %12)
  %13 = load ptr, ptr @ipv6_handle, align 8
  call void @dissector_add_uint(ptr noundef @.str.692, i32 noundef 41, ptr noundef %13)
  %14 = load ptr, ptr @ipv6_handle, align 8
  call void @dissector_add_uint(ptr noundef @.str.769, i32 noundef 24, ptr noundef %14)
  %15 = load ptr, ptr @ipv6_handle, align 8
  call void @dissector_add_uint(ptr noundef @.str.769, i32 noundef 28, ptr noundef %15)
  %16 = load ptr, ptr @ipv6_handle, align 8
  call void @dissector_add_uint(ptr noundef @.str.769, i32 noundef 30, ptr noundef %16)
  %17 = load ptr, ptr @ipv6_handle, align 8
  call void @dissector_add_uint(ptr noundef @.str.770, i32 noundef 34525, ptr noundef %17)
  %18 = load ptr, ptr @ipv6_handle, align 8
  call void @dissector_add_uint(ptr noundef @.str.771, i32 noundef 142, ptr noundef %18)
  %19 = load ptr, ptr @ipv6_handle, align 8
  call void @dissector_add_uint(ptr noundef @.str.772, i32 noundef 142, ptr noundef %19)
  %20 = load ptr, ptr @ipv6_handle, align 8
  call void @dissector_add_uint(ptr noundef @.str.773, i32 noundef 142, ptr noundef %20)
  %21 = load ptr, ptr @ipv6_handle, align 8
  call void @dissector_add_uint(ptr noundef @.str.774, i32 noundef 196, ptr noundef %21)
  %22 = load ptr, ptr @ipv6_handle, align 8
  call void @dissector_add_uint(ptr noundef @.str.775, i32 noundef 6, ptr noundef %22)
  %23 = load ptr, ptr @ipv6_handle, align 8
  call void @dissector_add_uint(ptr noundef @.str.775, i32 noundef 7, ptr noundef %23)
  %24 = load ptr, ptr @ipv6_handle, align 8
  call void @dissector_add_uint(ptr noundef @.str.776, i32 noundef 87, ptr noundef %24)
  %25 = load ptr, ptr @ipv6_handle, align 8
  call void @dissector_add_uint(ptr noundef @.str.777, i32 noundef 87, ptr noundef %25)
  %26 = load ptr, ptr @ipv6_handle, align 8
  call void @dissector_add_uint(ptr noundef @.str.778, i32 noundef 12, ptr noundef %26)
  %27 = load ptr, ptr @ipv6_handle, align 8
  call void @dissector_add_uint(ptr noundef @.str.779, i32 noundef 130, ptr noundef %27)
  %28 = load ptr, ptr @ipv6_handle, align 8
  call void @dissector_add_uint(ptr noundef @.str.780, i32 noundef 24, ptr noundef %28)
  %29 = load ptr, ptr @ipv6_handle, align 8
  call void @dissector_add_uint(ptr noundef @.str.781, i32 noundef 2, ptr noundef %29)
  %30 = load ptr, ptr @ipv6_handle, align 8
  call void @dissector_add_uint(ptr noundef @.str.782, i32 noundef 2, ptr noundef %30)
  %31 = load ptr, ptr @ipv6_handle, align 8
  call void @dissector_add_for_decode_as_with_preference(ptr noundef @.str.783, ptr noundef %31)
  %32 = load i32, ptr @proto_ipv6_hopopts, align 4
  %33 = call ptr @create_dissector_handle(ptr noundef @dissect_hopopts, i32 noundef %32)
  store ptr %33, ptr %1, align 8
  %34 = load ptr, ptr %1, align 8
  call void @dissector_add_uint(ptr noundef @.str.692, i32 noundef 0, ptr noundef %34)
  %35 = load i32, ptr @proto_ipv6_routing, align 4
  %36 = call ptr @create_dissector_handle(ptr noundef @dissect_routing6, i32 noundef %35)
  store ptr %36, ptr %2, align 8
  %37 = load ptr, ptr %2, align 8
  call void @dissector_add_uint(ptr noundef @.str.692, i32 noundef 43, ptr noundef %37)
  %38 = load i32, ptr @proto_ipv6_fraghdr, align 4
  %39 = call ptr @create_dissector_handle(ptr noundef @dissect_fraghdr, i32 noundef %38)
  store ptr %39, ptr %3, align 8
  %40 = load ptr, ptr %3, align 8
  call void @dissector_add_uint(ptr noundef @.str.692, i32 noundef 44, ptr noundef %40)
  %41 = load i32, ptr @proto_ipv6_dstopts, align 4
  %42 = call ptr @create_dissector_handle(ptr noundef @dissect_dstopts, i32 noundef %41)
  store ptr %42, ptr %4, align 8
  %43 = load ptr, ptr %4, align 8
  call void @dissector_add_uint(ptr noundef @.str.692, i32 noundef 60, ptr noundef %43)
  %44 = call ptr @find_dissector_table(ptr noundef @.str.692)
  store ptr %44, ptr @ip_dissector_table, align 8
  %45 = call ptr @find_capture_dissector(ptr noundef @.str.691)
  store ptr %45, ptr %5, align 8
  %46 = load ptr, ptr %5, align 8
  call void @capture_dissector_add_uint(ptr noundef @.str.765, i32 noundef 34525, ptr noundef %46)
  %47 = load ptr, ptr %5, align 8
  call void @capture_dissector_add_uint(ptr noundef @.str.780, i32 noundef 24, ptr noundef %47)
  %48 = load ptr, ptr %5, align 8
  call void @capture_dissector_add_uint(ptr noundef @.str.784, i32 noundef 24, ptr noundef %48)
  %49 = load ptr, ptr %5, align 8
  call void @capture_dissector_add_uint(ptr noundef @.str.784, i32 noundef 28, ptr noundef %49)
  %50 = load ptr, ptr %5, align 8
  call void @capture_dissector_add_uint(ptr noundef @.str.784, i32 noundef 30, ptr noundef %50)
  %51 = load ptr, ptr %5, align 8
  call void @capture_dissector_add_uint(ptr noundef @.str.771, i32 noundef 142, ptr noundef %51)
  %52 = load i32, ptr @proto_ipv6_hopopts, align 4
  %53 = call ptr @create_capture_dissector_handle(ptr noundef @capture_ipv6_exthdr, i32 noundef %52)
  store ptr %53, ptr %6, align 8
  %54 = load ptr, ptr %6, align 8
  call void @capture_dissector_add_uint(ptr noundef @.str.692, i32 noundef 0, ptr noundef %54)
  %55 = load i32, ptr @proto_ipv6_routing, align 4
  %56 = call ptr @create_capture_dissector_handle(ptr noundef @capture_ipv6_exthdr, i32 noundef %55)
  store ptr %56, ptr %6, align 8
  %57 = load ptr, ptr %6, align 8
  call void @capture_dissector_add_uint(ptr noundef @.str.692, i32 noundef 43, ptr noundef %57)
  %58 = load i32, ptr @proto_ipv6_fraghdr, align 4
  %59 = call ptr @create_capture_dissector_handle(ptr noundef @capture_ipv6_exthdr, i32 noundef %58)
  store ptr %59, ptr %6, align 8
  %60 = load ptr, ptr %6, align 8
  call void @capture_dissector_add_uint(ptr noundef @.str.692, i32 noundef 44, ptr noundef %60)
  %61 = load i32, ptr @proto_ipv6_dstopts, align 4
  %62 = call ptr @create_capture_dissector_handle(ptr noundef @capture_ipv6_exthdr, i32 noundef %61)
  store ptr %62, ptr %6, align 8
  %63 = load ptr, ptr %6, align 8
  call void @capture_dissector_add_uint(ptr noundef @.str.692, i32 noundef 60, ptr noundef %63)
  %64 = load i32, ptr @proto_ipv6_routing_rt0, align 4
  %65 = call ptr @create_dissector_handle(ptr noundef @dissect_routing6_rt0, i32 noundef %64)
  store ptr %65, ptr %7, align 8
  %66 = load ptr, ptr %7, align 8
  call void @dissector_add_uint(ptr noundef @.str.562, i32 noundef 0, ptr noundef %66)
  %67 = load i32, ptr @proto_ipv6_routing_mipv6, align 4
  %68 = call ptr @create_dissector_handle(ptr noundef @dissect_routing6_mipv6, i32 noundef %67)
  store ptr %68, ptr %7, align 8
  %69 = load ptr, ptr %7, align 8
  call void @dissector_add_uint(ptr noundef @.str.562, i32 noundef 2, ptr noundef %69)
  %70 = load i32, ptr @proto_ipv6_routing_rpl, align 4
  %71 = call ptr @create_dissector_handle(ptr noundef @dissect_routing6_rpl, i32 noundef %70)
  store ptr %71, ptr %7, align 8
  %72 = load ptr, ptr %7, align 8
  call void @dissector_add_uint(ptr noundef @.str.562, i32 noundef 3, ptr noundef %72)
  %73 = load i32, ptr @proto_ipv6_routing_srh, align 4
  %74 = call ptr @create_dissector_handle(ptr noundef @dissect_routing6_srh, i32 noundef %73)
  store ptr %74, ptr %7, align 8
  %75 = load ptr, ptr %7, align 8
  call void @dissector_add_uint(ptr noundef @.str.562, i32 noundef 4, ptr noundef %75)
  %76 = load i32, ptr @proto_ipv6_routing_crh, align 4
  %77 = call ptr @create_dissector_handle(ptr noundef @dissect_routing6_crh, i32 noundef %76)
  store ptr %77, ptr %7, align 8
  %78 = load ptr, ptr %7, align 8
  call void @dissector_add_uint(ptr noundef @.str.562, i32 noundef 5, ptr noundef %78)
  %79 = load ptr, ptr %7, align 8
  call void @dissector_add_uint(ptr noundef @.str.562, i32 noundef 6, ptr noundef %79)
  %80 = call i32 @find_tap_id(ptr noundef @.str.785)
  store i32 %80, ptr @exported_pdu_tap, align 4
  call void @llvm.lifetime.end.p0(i64 8, ptr %7) #15
  call void @llvm.lifetime.end.p0(i64 8, ptr %6) #15
  call void @llvm.lifetime.end.p0(i64 8, ptr %5) #15
  call void @llvm.lifetime.end.p0(i64 8, ptr %4) #15
  call void @llvm.lifetime.end.p0(i64 8, ptr %3) #15
  call void @llvm.lifetime.end.p0(i64 8, ptr %2) #15
  call void @llvm.lifetime.end.p0(i64 8, ptr %1) #15
  ret void
}