; Function Attrs: null_pointer_is_valid sspstrong uwtable
define hidden void @proto_reg_handoff_ipv6() local_unnamed_addr #0 {
  %1 = load ptr, ptr @ipv6_handle, align 8
  tail call void @dissector_add_uint(ptr noundef nonnull @.str.765, i32 noundef 34525, ptr noundef %1)
  %2 = load ptr, ptr @ipv6_handle, align 8
  tail call void @dissector_add_uint(ptr noundef nonnull @.str.766, i32 noundef 23, ptr noundef %2)
  %3 = load ptr, ptr @ipv6_handle, align 8
  tail call void @dissector_add_uint(ptr noundef nonnull @.str.767, i32 noundef 87, ptr noundef %3)
  %4 = load ptr, ptr @ipv6_handle, align 8
  tail call void @dissector_add_uint(ptr noundef nonnull @.str.767, i32 noundef 34525, ptr noundef %4)
  %5 = load ptr, ptr @ipv6_handle, align 8
  tail call void @dissector_add_uint(ptr noundef nonnull @.str.768, i32 noundef 34525, ptr noundef %5)
  %6 = load ptr, ptr @ipv6_handle, align 8
  tail call void @dissector_add_uint(ptr noundef nonnull @.str.692, i32 noundef 41, ptr noundef %6)
  %7 = load ptr, ptr @ipv6_handle, align 8
  tail call void @dissector_add_uint(ptr noundef nonnull @.str.769, i32 noundef 24, ptr noundef %7)
  %8 = load ptr, ptr @ipv6_handle, align 8
  tail call void @dissector_add_uint(ptr noundef nonnull @.str.769, i32 noundef 28, ptr noundef %8)
  %9 = load ptr, ptr @ipv6_handle, align 8
  tail call void @dissector_add_uint(ptr noundef nonnull @.str.769, i32 noundef 30, ptr noundef %9)
  %10 = load ptr, ptr @ipv6_handle, align 8
  tail call void @dissector_add_uint(ptr noundef nonnull @.str.770, i32 noundef 34525, ptr noundef %10)
  %11 = load ptr, ptr @ipv6_handle, align 8
  tail call void @dissector_add_uint(ptr noundef nonnull @.str.771, i32 noundef 142, ptr noundef %11)
  %12 = load ptr, ptr @ipv6_handle, align 8
  tail call void @dissector_add_uint(ptr noundef nonnull @.str.772, i32 noundef 142, ptr noundef %12)
  %13 = load ptr, ptr @ipv6_handle, align 8
  tail call void @dissector_add_uint(ptr noundef nonnull @.str.773, i32 noundef 142, ptr noundef %13)
  %14 = load ptr, ptr @ipv6_handle, align 8
  tail call void @dissector_add_uint(ptr noundef nonnull @.str.774, i32 noundef 196, ptr noundef %14)
  %15 = load ptr, ptr @ipv6_handle, align 8
  tail call void @dissector_add_uint(ptr noundef nonnull @.str.775, i32 noundef 6, ptr noundef %15)
  %16 = load ptr, ptr @ipv6_handle, align 8
  tail call void @dissector_add_uint(ptr noundef nonnull @.str.775, i32 noundef 7, ptr noundef %16)
  %17 = load ptr, ptr @ipv6_handle, align 8
  tail call void @dissector_add_uint(ptr noundef nonnull @.str.776, i32 noundef 87, ptr noundef %17)
  %18 = load ptr, ptr @ipv6_handle, align 8
  tail call void @dissector_add_uint(ptr noundef nonnull @.str.777, i32 noundef 87, ptr noundef %18)
  %19 = load ptr, ptr @ipv6_handle, align 8
  tail call void @dissector_add_uint(ptr noundef nonnull @.str.778, i32 noundef 12, ptr noundef %19)
  %20 = load ptr, ptr @ipv6_handle, align 8
  tail call void @dissector_add_uint(ptr noundef nonnull @.str.779, i32 noundef 130, ptr noundef %20)
  %21 = load ptr, ptr @ipv6_handle, align 8
  tail call void @dissector_add_uint(ptr noundef nonnull @.str.780, i32 noundef 24, ptr noundef %21)
  %22 = load ptr, ptr @ipv6_handle, align 8
  tail call void @dissector_add_uint(ptr noundef nonnull @.str.781, i32 noundef 2, ptr noundef %22)
  %23 = load ptr, ptr @ipv6_handle, align 8
  tail call void @dissector_add_uint(ptr noundef nonnull @.str.782, i32 noundef 2, ptr noundef %23)
  %24 = load ptr, ptr @ipv6_handle, align 8
  tail call void @dissector_add_for_decode_as_with_preference(ptr noundef nonnull @.str.783, ptr noundef %24)
  %25 = load i32, ptr @proto_ipv6_hopopts, align 4
  %26 = tail call ptr @create_dissector_handle(ptr noundef nonnull @dissect_hopopts, i32 noundef %25)
  tail call void @dissector_add_uint(ptr noundef nonnull @.str.692, i32 noundef 0, ptr noundef %26)
  %27 = load i32, ptr @proto_ipv6_routing, align 4
  %28 = tail call ptr @create_dissector_handle(ptr noundef nonnull @dissect_routing6, i32 noundef %27)
  tail call void @dissector_add_uint(ptr noundef nonnull @.str.692, i32 noundef 43, ptr noundef %28)
  %29 = load i32, ptr @proto_ipv6_fraghdr, align 4
  %30 = tail call ptr @create_dissector_handle(ptr noundef nonnull @dissect_fraghdr, i32 noundef %29)
  tail call void @dissector_add_uint(ptr noundef nonnull @.str.692, i32 noundef 44, ptr noundef %30)
  %31 = load i32, ptr @proto_ipv6_dstopts, align 4
  %32 = tail call ptr @create_dissector_handle(ptr noundef nonnull @dissect_dstopts, i32 noundef %31)
  tail call void @dissector_add_uint(ptr noundef nonnull @.str.692, i32 noundef 60, ptr noundef %32)
  %33 = tail call ptr @find_dissector_table(ptr noundef nonnull @.str.692)
  store ptr %33, ptr @ip_dissector_table, align 8
  %34 = tail call ptr @find_capture_dissector(ptr noundef nonnull @.str.691)
  tail call void @capture_dissector_add_uint(ptr noundef nonnull @.str.765, i32 noundef 34525, ptr noundef %34)
  tail call void @capture_dissector_add_uint(ptr noundef nonnull @.str.780, i32 noundef 24, ptr noundef %34)
  tail call void @capture_dissector_add_uint(ptr noundef nonnull @.str.784, i32 noundef 24, ptr noundef %34)
  tail call void @capture_dissector_add_uint(ptr noundef nonnull @.str.784, i32 noundef 28, ptr noundef %34)
  tail call void @capture_dissector_add_uint(ptr noundef nonnull @.str.784, i32 noundef 30, ptr noundef %34)
  tail call void @capture_dissector_add_uint(ptr noundef nonnull @.str.771, i32 noundef 142, ptr noundef %34)
  %35 = load i32, ptr @proto_ipv6_hopopts, align 4
  %36 = tail call ptr @create_capture_dissector_handle(ptr noundef nonnull @capture_ipv6_exthdr, i32 noundef %35)
  tail call void @capture_dissector_add_uint(ptr noundef nonnull @.str.692, i32 noundef 0, ptr noundef %36)
  %37 = load i32, ptr @proto_ipv6_routing, align 4
  %38 = tail call ptr @create_capture_dissector_handle(ptr noundef nonnull @capture_ipv6_exthdr, i32 noundef %37)
  tail call void @capture_dissector_add_uint(ptr noundef nonnull @.str.692, i32 noundef 43, ptr noundef %38)
  %39 = load i32, ptr @proto_ipv6_fraghdr, align 4
  %40 = tail call ptr @create_capture_dissector_handle(ptr noundef nonnull @capture_ipv6_exthdr, i32 noundef %39)
  tail call void @capture_dissector_add_uint(ptr noundef nonnull @.str.692, i32 noundef 44, ptr noundef %40)
  %41 = load i32, ptr @proto_ipv6_dstopts, align 4
  %42 = tail call ptr @create_capture_dissector_handle(ptr noundef nonnull @capture_ipv6_exthdr, i32 noundef %41)
  tail call void @capture_dissector_add_uint(ptr noundef nonnull @.str.692, i32 noundef 60, ptr noundef %42)
  %43 = load i32, ptr @proto_ipv6_routing_rt0, align 4
  %44 = tail call ptr @create_dissector_handle(ptr noundef nonnull @dissect_routing6_rt0, i32 noundef %43)
  tail call void @dissector_add_uint(ptr noundef nonnull @.str.562, i32 noundef 0, ptr noundef %44)
  %45 = load i32, ptr @proto_ipv6_routing_mipv6, align 4
  %46 = tail call ptr @create_dissector_handle(ptr noundef nonnull @dissect_routing6_mipv6, i32 noundef %45)
  tail call void @dissector_add_uint(ptr noundef nonnull @.str.562, i32 noundef 2, ptr noundef %46)
  %47 = load i32, ptr @proto_ipv6_routing_rpl, align 4
  %48 = tail call ptr @create_dissector_handle(ptr noundef nonnull @dissect_routing6_rpl, i32 noundef %47)
  tail call void @dissector_add_uint(ptr noundef nonnull @.str.562, i32 noundef 3, ptr noundef %48)
  %49 = load i32, ptr @proto_ipv6_routing_srh, align 4
  %50 = tail call ptr @create_dissector_handle(ptr noundef nonnull @dissect_routing6_srh, i32 noundef %49)
  tail call void @dissector_add_uint(ptr noundef nonnull @.str.562, i32 noundef 4, ptr noundef %50)
  %51 = load i32, ptr @proto_ipv6_routing_crh, align 4
  %52 = tail call ptr @create_dissector_handle(ptr noundef nonnull @dissect_routing6_crh, i32 noundef %51)
  tail call void @dissector_add_uint(ptr noundef nonnull @.str.562, i32 noundef 5, ptr noundef %52)
  tail call void @dissector_add_uint(ptr noundef nonnull @.str.562, i32 noundef 6, ptr noundef %52)
  %53 = tail call i32 @find_tap_id(ptr noundef nonnull @.str.785)
  store i32 %53, ptr @exported_pdu_tap, align 4
  ret void
}